#include <math.h>
#include <stdio.h>
#include <stdlib.h>
#include <string.h>


int main(){
	int n,i,j;
	char s[1000][1000]={'\0'};
	scanf("%d",&n);
	for(i=0;i<=n;i++){
		gets(s[i]);
	}
	for(i=1;i<=n;i++){
		for(j=0;s[i][j]!=NULL;j++){
			if(s[i][j]=='A') s[i][j]='T';
			else if(s[i][j]=='T') s[i][j]='A';
			else if(s[i][j]=='G') s[i][j]='C';
			else if(s[i][j]=='C') s[i][j]='G';
		}
	}
	for(i=1;i<=n;i++){
		puts(s[i]);
	}
}
