; ModuleID = '33/3250.c'
source_filename = "33/3250.c"
target datalayout = "e-m:e-p270:32:32-p271:32:32-p272:64:64-i64:64-f80:128-n8:16:32:64-S128"
target triple = "x86_64-pc-linux-gnu"

@.str = private unnamed_addr constant [3 x i8] c"%d\00", align 1

; Function Attrs: noinline nounwind uwtable
define dso_local i32 @main() #0 {
  %1 = alloca i32, align 4
  %2 = alloca i32, align 4
  %3 = alloca i32, align 4
  %4 = alloca i32, align 4
  %5 = alloca [1000 x [1000 x i8]], align 16
  store i32 0, i32* %1, align 4
  %6 = bitcast [1000 x [1000 x i8]]* %5 to i8*
  call void @llvm.memset.p0i8.i64(i8* align 16 %6, i8 0, i64 1000000, i1 false)
  %7 = call i32 (i8*, ...) @__isoc99_scanf(i8* getelementptr inbounds ([3 x i8], [3 x i8]* @.str, i64 0, i64 0), i32* %2)
  store i32 0, i32* %3, align 4
  br label %8

8:                                                ; preds = %18, %0
  %9 = load i32, i32* %3, align 4
  %10 = load i32, i32* %2, align 4
  %11 = icmp sle i32 %9, %10
  br i1 %11, label %12, label %21

12:                                               ; preds = %8
  %13 = load i32, i32* %3, align 4
  %14 = sext i32 %13 to i64
  %15 = getelementptr inbounds [1000 x [1000 x i8]], [1000 x [1000 x i8]]* %5, i64 0, i64 %14
  %16 = getelementptr inbounds [1000 x i8], [1000 x i8]* %15, i64 0, i64 0
  %17 = call i32 (i8*, ...) bitcast (i32 (...)* @gets to i32 (i8*, ...)*)(i8* %16)
  br label %18

18:                                               ; preds = %12
  %19 = load i32, i32* %3, align 4
  %20 = add nsw i32 %19, 1
  store i32 %20, i32* %3, align 4
  br label %8

21:                                               ; preds = %8
  store i32 1, i32* %3, align 4
  br label %22

22:                                               ; preds = %114, %21
  %23 = load i32, i32* %3, align 4
  %24 = load i32, i32* %2, align 4
  %25 = icmp sle i32 %23, %24
  br i1 %25, label %26, label %117

26:                                               ; preds = %22
  store i32 0, i32* %4, align 4
  br label %27

27:                                               ; preds = %110, %26
  %28 = load i32, i32* %3, align 4
  %29 = sext i32 %28 to i64
  %30 = getelementptr inbounds [1000 x [1000 x i8]], [1000 x [1000 x i8]]* %5, i64 0, i64 %29
  %31 = load i32, i32* %4, align 4
  %32 = sext i32 %31 to i64
  %33 = getelementptr inbounds [1000 x i8], [1000 x i8]* %30, i64 0, i64 %32
  %34 = load i8, i8* %33, align 1
  %35 = sext i8 %34 to i64
  %36 = inttoptr i64 %35 to i8*
  %37 = icmp ne i8* %36, null
  br i1 %37, label %38, label %113

38:                                               ; preds = %27
  %39 = load i32, i32* %3, align 4
  %40 = sext i32 %39 to i64
  %41 = getelementptr inbounds [1000 x [1000 x i8]], [1000 x [1000 x i8]]* %5, i64 0, i64 %40
  %42 = load i32, i32* %4, align 4
  %43 = sext i32 %42 to i64
  %44 = getelementptr inbounds [1000 x i8], [1000 x i8]* %41, i64 0, i64 %43
  %45 = load i8, i8* %44, align 1
  %46 = sext i8 %45 to i32
  %47 = icmp eq i32 %46, 65
  br i1 %47, label %48, label %55

48:                                               ; preds = %38
  %49 = load i32, i32* %3, align 4
  %50 = sext i32 %49 to i64
  %51 = getelementptr inbounds [1000 x [1000 x i8]], [1000 x [1000 x i8]]* %5, i64 0, i64 %50
  %52 = load i32, i32* %4, align 4
  %53 = sext i32 %52 to i64
  %54 = getelementptr inbounds [1000 x i8], [1000 x i8]* %51, i64 0, i64 %53
  store i8 84, i8* %54, align 1
  br label %109

55:                                               ; preds = %38
  %56 = load i32, i32* %3, align 4
  %57 = sext i32 %56 to i64
  %58 = getelementptr inbounds [1000 x [1000 x i8]], [1000 x [1000 x i8]]* %5, i64 0, i64 %57
  %59 = load i32, i32* %4, align 4
  %60 = sext i32 %59 to i64
  %61 = getelementptr inbounds [1000 x i8], [1000 x i8]* %58, i64 0, i64 %60
  %62 = load i8, i8* %61, align 1
  %63 = sext i8 %62 to i32
  %64 = icmp eq i32 %63, 84
  br i1 %64, label %65, label %72

65:                                               ; preds = %55
  %66 = load i32, i32* %3, align 4
  %67 = sext i32 %66 to i64
  %68 = getelementptr inbounds [1000 x [1000 x i8]], [1000 x [1000 x i8]]* %5, i64 0, i64 %67
  %69 = load i32, i32* %4, align 4
  %70 = sext i32 %69 to i64
  %71 = getelementptr inbounds [1000 x i8], [1000 x i8]* %68, i64 0, i64 %70
  store i8 65, i8* %71, align 1
  br label %108

72:                                               ; preds = %55
  %73 = load i32, i32* %3, align 4
  %74 = sext i32 %73 to i64
  %75 = getelementptr inbounds [1000 x [1000 x i8]], [1000 x [1000 x i8]]* %5, i64 0, i64 %74
  %76 = load i32, i32* %4, align 4
  %77 = sext i32 %76 to i64
  %78 = getelementptr inbounds [1000 x i8], [1000 x i8]* %75, i64 0, i64 %77
  %79 = load i8, i8* %78, align 1
  %80 = sext i8 %79 to i32
  %81 = icmp eq i32 %80, 71
  br i1 %81, label %82, label %89

82:                                               ; preds = %72
  %83 = load i32, i32* %3, align 4
  %84 = sext i32 %83 to i64
  %85 = getelementptr inbounds [1000 x [1000 x i8]], [1000 x [1000 x i8]]* %5, i64 0, i64 %84
  %86 = load i32, i32* %4, align 4
  %87 = sext i32 %86 to i64
  %88 = getelementptr inbounds [1000 x i8], [1000 x i8]* %85, i64 0, i64 %87
  store i8 67, i8* %88, align 1
  br label %107

89:                                               ; preds = %72
  %90 = load i32, i32* %3, align 4
  %91 = sext i32 %90 to i64
  %92 = getelementptr inbounds [1000 x [1000 x i8]], [1000 x [1000 x i8]]* %5, i64 0, i64 %91
  %93 = load i32, i32* %4, align 4
  %94 = sext i32 %93 to i64
  %95 = getelementptr inbounds [1000 x i8], [1000 x i8]* %92, i64 0, i64 %94
  %96 = load i8, i8* %95, align 1
  %97 = sext i8 %96 to i32
  %98 = icmp eq i32 %97, 67
  br i1 %98, label %99, label %106

99:                                               ; preds = %89
  %100 = load i32, i32* %3, align 4
  %101 = sext i32 %100 to i64
  %102 = getelementptr inbounds [1000 x [1000 x i8]], [1000 x [1000 x i8]]* %5, i64 0, i64 %101
  %103 = load i32, i32* %4, align 4
  %104 = sext i32 %103 to i64
  %105 = getelementptr inbounds [1000 x i8], [1000 x i8]* %102, i64 0, i64 %104
  store i8 71, i8* %105, align 1
  br label %106

106:                                              ; preds = %99, %89
  br label %107

107:                                              ; preds = %106, %82
  br label %108

108:                                              ; preds = %107, %65
  br label %109

109:                                              ; preds = %108, %48
  br label %110

110:                                              ; preds = %109
  %111 = load i32, i32* %4, align 4
  %112 = add nsw i32 %111, 1
  store i32 %112, i32* %4, align 4
  br label %27

113:                                              ; preds = %27
  br label %114

114:                                              ; preds = %113
  %115 = load i32, i32* %3, align 4
  %116 = add nsw i32 %115, 1
  store i32 %116, i32* %3, align 4
  br label %22

117:                                              ; preds = %22
  store i32 1, i32* %3, align 4
  br label %118

118:                                              ; preds = %128, %117
  %119 = load i32, i32* %3, align 4
  %120 = load i32, i32* %2, align 4
  %121 = icmp sle i32 %119, %120
  br i1 %121, label %122, label %131

122:                                              ; preds = %118
  %123 = load i32, i32* %3, align 4
  %124 = sext i32 %123 to i64
  %125 = getelementptr inbounds [1000 x [1000 x i8]], [1000 x [1000 x i8]]* %5, i64 0, i64 %124
  %126 = getelementptr inbounds [1000 x i8], [1000 x i8]* %125, i64 0, i64 0
  %127 = call i32 @puts(i8* %126)
  br label %128

128:                                              ; preds = %122
  %129 = load i32, i32* %3, align 4
  %130 = add nsw i32 %129, 1
  store i32 %130, i32* %3, align 4
  br label %118

131:                                              ; preds = %118
  %132 = load i32, i32* %1, align 4
  ret i32 %132
}

; Function Attrs: argmemonly nounwind willreturn
declare void @llvm.memset.p0i8.i64(i8* nocapture writeonly, i8, i64, i1 immarg) #1

declare dso_local i32 @__isoc99_scanf(i8*, ...) #2

declare dso_local i32 @gets(...) #2

declare dso_local i32 @puts(i8*) #2


!llvm.module.flags = !{!0}
!llvm.ident = !{!1}

!0 = !{i32 1, !"wchar_size", i32 4}
!1 = !{!"clang version 10.0.0-4ubuntu1 "}
